; Function Attrs: nounwind uwtable
define i32 @pmix_bfrops_base_pack_int(ptr noundef %0, ptr noundef %1, ptr noundef %2, i32 noundef %3, i16 noundef zeroext %4) local_unnamed_addr #0 {
  %6 = tail call i32 @pmix_bfrop_store_data_type(ptr noundef %0, ptr noundef %1, i16 noundef zeroext 9) #8
  %.not = icmp eq i32 %6, 0
  br i1 %.not, label %7, label %pmix_pointer_array_get_item.exit.thread

7:                                                ; preds = %5
  %8 = getelementptr inbounds nuw i8, ptr %0, i64 128
  %9 = load i32, ptr %8, align 8, !tbaa !15
  %.not.i = icmp sgt i32 %9, 9
  br i1 %.not.i, label %pmix_pointer_array_get_item.exit, label %pmix_pointer_array_get_item.exit.thread, !prof !18

pmix_pointer_array_get_item.exit:                 ; preds = %7
  %10 = getelementptr inbounds nuw i8, ptr %0, i64 152
  %11 = load ptr, ptr %10, align 8, !tbaa !19
  %12 = getelementptr inbounds nuw i8, ptr %11, i64 72
  %13 = load ptr, ptr %12, align 8, !tbaa !20
  %14 = icmp eq ptr %13, null
  br i1 %14, label %pmix_pointer_array_get_item.exit.thread, label %15

15:                                               ; preds = %pmix_pointer_array_get_item.exit
  %16 = getelementptr inbounds nuw i8, ptr %13, i64 136
  %17 = load ptr, ptr %16, align 8, !tbaa !21
  %18 = tail call i32 %17(ptr noundef nonnull %0, ptr noundef %1, ptr noundef %2, i32 noundef %3, i16 noundef zeroext 9) #8
  br label %pmix_pointer_array_get_item.exit.thread

pmix_pointer_array_get_item.exit.thread:          ; preds = %7, %15, %pmix_pointer_array_get_item.exit, %5
  %.0 = phi i32 [ %6, %5 ], [ %18, %15 ], [ -16, %pmix_pointer_array_get_item.exit ], [ -16, %7 ]
  ret i32 %.0
}